target datalayout = "e-m:e-p270:32:32-p271:32:32-p272:64:64-i64:64-i128:128-f80:128-n8:16:32:64-S128"
target triple = "x86_64-pc-linux-gnu"

%"struct.std::nothrow_t" = type { i8 }
%"class.zmq::msg_t" = type { %union.anon }
%union.anon = type { %struct.anon }
%struct.anon = type { ptr, [34 x i8], i8, i8, i32, %"union.zmq::msg_t::group_t" }
%"union.zmq::msg_t::group_t" = type { %struct.anon.1 }
%struct.anon.1 = type { i8, ptr }
%"class.zmq::pipe_t" = type { %"class.zmq::object_t.base", [4 x i8], %"class.zmq::array_item_t.base", [4 x i8], %"class.zmq::array_item_t.base.11", [4 x i8], %"class.zmq::array_item_t.base.13", ptr, ptr, i8, i8, i32, i32, i32, i32, i64, i64, i64, ptr, ptr, i32, i8, [3 x i8], %"struct.zmq::blob_t", i32, i8, [3 x i8], %"struct.zmq::endpoint_uri_pair_t", %"class.zmq::msg_t" }
%"class.zmq::object_t.base" = type <{ ptr, ptr, i32 }>
%"class.zmq::array_item_t.base" = type <{ ptr, i32 }>
%"class.zmq::array_item_t.base.11" = type <{ ptr, i32 }>
%"class.zmq::array_item_t.base.13" = type <{ ptr, i32 }>
%"struct.zmq::blob_t" = type <{ ptr, i64, i8, [7 x i8] }>
%"struct.zmq::endpoint_uri_pair_t" = type <{ %"class.std::__cxx11::basic_string", %"class.std::__cxx11::basic_string", i32, [4 x i8] }>
%"class.std::__cxx11::basic_string" = type { %"struct.std::__cxx11::basic_string<char>::_Alloc_hider", i64, %union.anon.14 }
%"struct.std::__cxx11::basic_string<char>::_Alloc_hider" = type { ptr }
%union.anon.14 = type { i64, [8 x i8] }

@_ZSt7nothrow = external global %"struct.std::nothrow_t", align 1

; Function Attrs: mustprogress uwtable
define void @_ZN3zmq6pipe_t18send_stats_to_peerEPNS_5own_tE(ptr noundef nonnull align 8 dereferenceable(328) %0, ptr noundef %1) #0 align 2 personality ptr @__gxx_personality_v0 {
  %3 = alloca ptr, align 8
  %4 = alloca ptr, align 8
  %5 = alloca ptr, align 8
  %6 = alloca ptr, align 8
  %7 = alloca i1, align 1
  %8 = alloca ptr, align 8
  %9 = alloca i32, align 4
  store ptr %0, ptr %3, align 8, !tbaa !27
  store ptr %1, ptr %4, align 8, !tbaa !153
  %10 = load ptr, ptr %3, align 8
  %11 = getelementptr inbounds nuw %"class.zmq::pipe_t", ptr %10, i32 0, i32 20
  %12 = load i32, ptr %11, align 8, !tbaa !110
  %13 = icmp eq i32 %12, 0
  br i1 %13, label %14, label %39

14:                                               ; preds = %2
  call void @llvm.lifetime.start.p0(i64 8, ptr %5) #17
  %15 = call noalias noundef ptr @_ZnwmRKSt9nothrow_t(i64 noundef 72, ptr noundef nonnull align 1 dereferenceable(1) @_ZSt7nothrow) #18
  %16 = icmp eq ptr %15, null
  store i1 false, ptr %7, align 1
  br i1 %16, label %20, label %17

17:                                               ; preds = %14
  store ptr %15, ptr %6, align 8
  store i1 true, ptr %7, align 1
  %18 = getelementptr inbounds nuw %"class.zmq::pipe_t", ptr %10, i32 0, i32 27
  invoke void @_ZN3zmq19endpoint_uri_pair_tC2ERKS0_(ptr noundef nonnull align 8 dereferenceable(68) %15, ptr noundef nonnull align 8 dereferenceable(68) %18)
          to label %19 unwind label %31

19:                                               ; preds = %17
  br label %20

20:                                               ; preds = %19, %14
  %21 = phi ptr [ %15, %19 ], [ null, %14 ]
  store ptr %21, ptr %5, align 8, !tbaa !143
  %22 = getelementptr inbounds nuw %"class.zmq::pipe_t", ptr %10, i32 0, i32 18
  %23 = load ptr, ptr %22, align 8, !tbaa !53
  %24 = getelementptr inbounds nuw %"class.zmq::pipe_t", ptr %10, i32 0, i32 16
  %25 = load i64, ptr %24, align 8, !tbaa !109
  %26 = getelementptr inbounds nuw %"class.zmq::pipe_t", ptr %10, i32 0, i32 17
  %27 = load i64, ptr %26, align 8, !tbaa !124
  %28 = sub i64 %25, %27
  %29 = load ptr, ptr %4, align 8, !tbaa !153
  %30 = load ptr, ptr %5, align 8, !tbaa !143
  call void @_ZN3zmq8object_t20send_pipe_peer_statsEPNS_6pipe_tEmPNS_5own_tEPNS_19endpoint_uri_pair_tE(ptr noundef nonnull align 8 dereferenceable(20) %10, ptr noundef %23, i64 noundef %28, ptr noundef %29, ptr noundef %30)
  call void @llvm.lifetime.end.p0(i64 8, ptr %5) #17
  br label %39

31:                                               ; preds = %17
  %32 = landingpad { ptr, i32 }
          cleanup
  %33 = extractvalue { ptr, i32 } %32, 0
  store ptr %33, ptr %8, align 8
  %34 = extractvalue { ptr, i32 } %32, 1
  store i32 %34, ptr %9, align 4
  %35 = load i1, ptr %7, align 1
  br i1 %35, label %36, label %38

36:                                               ; preds = %31
  %37 = load ptr, ptr %6, align 8
  call void @_ZdlPvRKSt9nothrow_t(ptr noundef %37, ptr noundef nonnull align 1 dereferenceable(1) @_ZSt7nothrow) #19
  br label %38

38:                                               ; preds = %36, %31
  call void @llvm.lifetime.end.p0(i64 8, ptr %5) #17
  br label %40

39:                                               ; preds = %20, %2
  ret void

40:                                               ; preds = %38
  %41 = load ptr, ptr %8, align 8
  %42 = load i32, ptr %9, align 4
  %43 = insertvalue { ptr, i32 } poison, ptr %41, 0
  %44 = insertvalue { ptr, i32 } %43, i32 %42, 1
  resume { ptr, i32 } %44
}