; Function Attrs: mustprogress uwtable
define void @_ZN3zmq6pipe_t18send_stats_to_peerEPNS_5own_tE(ptr noundef nonnull align 8 dereferenceable(328) %0, ptr noundef %1) local_unnamed_addr #0 align 2 personality ptr @__gxx_personality_v0 {
  %3 = getelementptr inbounds nuw i8, ptr %0, i64 152
  %4 = load i32, ptr %3, align 8, !tbaa !105
  %5 = icmp eq i32 %4, 0
  br i1 %5, label %6, label %21

6:                                                ; preds = %2
  %7 = tail call noalias noundef dereferenceable_or_null(72) ptr @_ZnwmRKSt9nothrow_t(i64 noundef 72, ptr noundef nonnull align 1 dereferenceable(1) @_ZSt7nothrow) #24
  %8 = icmp eq ptr %7, null
  br i1 %8, label %11, label %9

9:                                                ; preds = %6
  %10 = getelementptr inbounds nuw i8, ptr %0, i64 192
  invoke void @_ZN3zmq19endpoint_uri_pair_tC2ERKS0_(ptr noundef nonnull align 8 dereferenceable(68) %7, ptr noundef nonnull align 8 dereferenceable(68) %10)
          to label %11 unwind label %19

11:                                               ; preds = %9, %6
  %12 = getelementptr inbounds nuw i8, ptr %0, i64 136
  %13 = load ptr, ptr %12, align 8, !tbaa !29
  %14 = getelementptr inbounds nuw i8, ptr %0, i64 120
  %15 = load i64, ptr %14, align 8, !tbaa !104
  %16 = getelementptr inbounds nuw i8, ptr %0, i64 128
  %17 = load i64, ptr %16, align 8, !tbaa !132
  %18 = sub i64 %15, %17
  tail call void @_ZN3zmq8object_t20send_pipe_peer_statsEPNS_6pipe_tEmPNS_5own_tEPNS_19endpoint_uri_pair_tE(ptr noundef nonnull align 8 dereferenceable(20) %0, ptr noundef %13, i64 noundef %18, ptr noundef %1, ptr noundef %7)
  br label %21

19:                                               ; preds = %9
  %20 = landingpad { ptr, i32 }
          cleanup
  tail call void @_ZdlPvRKSt9nothrow_t(ptr noundef nonnull %7, ptr noundef nonnull align 1 dereferenceable(1) @_ZSt7nothrow) #27
  resume { ptr, i32 } %20

21:                                               ; preds = %11, %2
  ret void
}